target datalayout = "e-m:e-p270:32:32-p271:32:32-p272:64:64-i64:64-i128:128-f80:128-n8:16:32:64-S128"
target triple = "x86_64-pc-linux-gnu"

%struct.tMPI_Reduce_req = type { %struct.tMPI_Atomic, ptr, ptr }
%struct.tMPI_Atomic = type { i32, [60 x i8] }

; Function Attrs: mustprogress uwtable
define noundef ptr @_Z21tMPI_Reduce_req_allocP10tmpi_comm_(ptr noundef %0) #0 {
  %2 = alloca ptr, align 8
  %3 = alloca ptr, align 8
  store ptr %0, ptr %2, align 8
  %4 = load ptr, ptr %2, align 8
  %5 = load ptr, ptr %2, align 8
  %6 = call noundef ptr @_Z14tMPI_Once_waitP10tmpi_comm_PFPvS1_ES1_Pi(ptr noundef %4, ptr noundef @_ZL25tMPI_Reduce_req_allocatorPv, ptr noundef %5, ptr noundef null)
  store ptr %6, ptr %3, align 8
  %7 = load ptr, ptr %3, align 8
  ret ptr %7
}

declare noundef ptr @_Z14tMPI_Once_waitP10tmpi_comm_PFPvS1_ES1_Pi(ptr noundef, ptr noundef, ptr noundef, ptr noundef) #1

; Function Attrs: mustprogress uwtable
define internal noundef ptr @_ZL25tMPI_Reduce_req_allocatorPv(ptr noundef %0) #0 {
  %2 = alloca ptr, align 8
  %3 = alloca ptr, align 8
  store ptr %0, ptr %2, align 8
  %4 = call noundef ptr @_Z11tMPI_Mallocm(i64 noundef 80)
  store ptr %4, ptr %3, align 8
  %5 = load ptr, ptr %3, align 8
  %6 = getelementptr inbounds %struct.tMPI_Reduce_req, ptr %5, i32 0, i32 0
  %7 = getelementptr inbounds %struct.tMPI_Atomic, ptr %6, i32 0, i32 0
  store i32 0, ptr %7, align 8
  %8 = load ptr, ptr %2, align 8
  %9 = load ptr, ptr %3, align 8
  %10 = getelementptr inbounds %struct.tMPI_Reduce_req, ptr %9, i32 0, i32 2
  store ptr %8, ptr %10, align 8
  %11 = load ptr, ptr %3, align 8
  ret ptr %11
}

declare noundef ptr @_Z11tMPI_Mallocm(i64 noundef) #1


!llvm.module.flags = !{!0, !1, !2, !3}

!0 = !{i32 1, !"wchar_size", i32 4}
!1 = !{i32 8, !"PIC Level", i32 2}
!2 = !{i32 7, !"uwtable", i32 2}
!3 = !{i32 7, !"frame-pointer", i32 2}
